; Function Attrs: nounwind uwtable
define dso_local void @Curl_ssl_conn_config_cleanup(ptr noundef captures(none) %0) local_unnamed_addr #2 {
  %2 = getelementptr inbounds nuw i8, ptr %0, i64 448
  %3 = load ptr, ptr @Curl_cfree, align 8
  %4 = load ptr, ptr %2, align 8
  tail call void %3(ptr noundef %4) #18
  store ptr null, ptr %2, align 8
  %5 = load ptr, ptr @Curl_cfree, align 8
  %6 = getelementptr inbounds nuw i8, ptr %0, i64 456
  %7 = load ptr, ptr %6, align 8
  tail call void %5(ptr noundef %7) #18
  store ptr null, ptr %6, align 8
  %8 = load ptr, ptr @Curl_cfree, align 8
  %9 = getelementptr inbounds nuw i8, ptr %0, i64 464
  %10 = load ptr, ptr %9, align 8
  tail call void %8(ptr noundef %10) #18
  store ptr null, ptr %9, align 8
  %11 = load ptr, ptr @Curl_cfree, align 8
  %12 = getelementptr inbounds nuw i8, ptr %0, i64 472
  %13 = load ptr, ptr %12, align 8
  tail call void %11(ptr noundef %13) #18
  store ptr null, ptr %12, align 8
  %14 = load ptr, ptr @Curl_cfree, align 8
  %15 = getelementptr inbounds nuw i8, ptr %0, i64 480
  %16 = load ptr, ptr %15, align 8
  tail call void %14(ptr noundef %16) #18
  store ptr null, ptr %15, align 8
  %17 = load ptr, ptr @Curl_cfree, align 8
  %18 = getelementptr inbounds nuw i8, ptr %0, i64 488
  %19 = load ptr, ptr %18, align 8
  tail call void %17(ptr noundef %19) #18
  store ptr null, ptr %18, align 8
  %20 = load ptr, ptr @Curl_cfree, align 8
  %21 = getelementptr inbounds nuw i8, ptr %0, i64 496
  %22 = load ptr, ptr %21, align 8
  tail call void %20(ptr noundef %22) #18
  store ptr null, ptr %21, align 8
  %23 = load ptr, ptr @Curl_cfree, align 8
  %24 = getelementptr inbounds nuw i8, ptr %0, i64 512
  %25 = load ptr, ptr %24, align 8
  tail call void %23(ptr noundef %25) #18
  store ptr null, ptr %24, align 8
  %26 = load ptr, ptr @Curl_cfree, align 8
  %27 = getelementptr inbounds nuw i8, ptr %0, i64 520
  %28 = load ptr, ptr %27, align 8
  tail call void %26(ptr noundef %28) #18
  store ptr null, ptr %27, align 8
  %29 = load ptr, ptr @Curl_cfree, align 8
  %30 = getelementptr inbounds nuw i8, ptr %0, i64 528
  %31 = load ptr, ptr %30, align 8
  tail call void %29(ptr noundef %31) #18
  store ptr null, ptr %30, align 8
  %32 = load ptr, ptr @Curl_cfree, align 8
  %33 = getelementptr inbounds nuw i8, ptr %0, i64 536
  %34 = load ptr, ptr %33, align 8
  tail call void %32(ptr noundef %34) #18
  store ptr null, ptr %33, align 8
  %35 = load ptr, ptr @Curl_cfree, align 8
  %36 = getelementptr inbounds nuw i8, ptr %0, i64 504
  %37 = load ptr, ptr %36, align 8
  tail call void %35(ptr noundef %37) #18
  store ptr null, ptr %36, align 8
  %38 = getelementptr inbounds nuw i8, ptr %0, i64 560
  %39 = load ptr, ptr @Curl_cfree, align 8
  %40 = load ptr, ptr %38, align 8
  tail call void %39(ptr noundef %40) #18
  store ptr null, ptr %38, align 8
  %41 = load ptr, ptr @Curl_cfree, align 8
  %42 = getelementptr inbounds nuw i8, ptr %0, i64 568
  %43 = load ptr, ptr %42, align 8
  tail call void %41(ptr noundef %43) #18
  store ptr null, ptr %42, align 8
  %44 = load ptr, ptr @Curl_cfree, align 8
  %45 = getelementptr inbounds nuw i8, ptr %0, i64 576
  %46 = load ptr, ptr %45, align 8
  tail call void %44(ptr noundef %46) #18
  store ptr null, ptr %45, align 8
  %47 = load ptr, ptr @Curl_cfree, align 8
  %48 = getelementptr inbounds nuw i8, ptr %0, i64 584
  %49 = load ptr, ptr %48, align 8
  tail call void %47(ptr noundef %49) #18
  store ptr null, ptr %48, align 8
  %50 = load ptr, ptr @Curl_cfree, align 8
  %51 = getelementptr inbounds nuw i8, ptr %0, i64 592
  %52 = load ptr, ptr %51, align 8
  tail call void %50(ptr noundef %52) #18
  store ptr null, ptr %51, align 8
  %53 = load ptr, ptr @Curl_cfree, align 8
  %54 = getelementptr inbounds nuw i8, ptr %0, i64 600
  %55 = load ptr, ptr %54, align 8
  tail call void %53(ptr noundef %55) #18
  store ptr null, ptr %54, align 8
  %56 = load ptr, ptr @Curl_cfree, align 8
  %57 = getelementptr inbounds nuw i8, ptr %0, i64 608
  %58 = load ptr, ptr %57, align 8
  tail call void %56(ptr noundef %58) #18
  store ptr null, ptr %57, align 8
  %59 = load ptr, ptr @Curl_cfree, align 8
  %60 = getelementptr inbounds nuw i8, ptr %0, i64 624
  %61 = load ptr, ptr %60, align 8
  tail call void %59(ptr noundef %61) #18
  store ptr null, ptr %60, align 8
  %62 = load ptr, ptr @Curl_cfree, align 8
  %63 = getelementptr inbounds nuw i8, ptr %0, i64 632
  %64 = load ptr, ptr %63, align 8
  tail call void %62(ptr noundef %64) #18
  store ptr null, ptr %63, align 8
  %65 = load ptr, ptr @Curl_cfree, align 8
  %66 = getelementptr inbounds nuw i8, ptr %0, i64 640
  %67 = load ptr, ptr %66, align 8
  tail call void %65(ptr noundef %67) #18
  store ptr null, ptr %66, align 8
  %68 = load ptr, ptr @Curl_cfree, align 8
  %69 = getelementptr inbounds nuw i8, ptr %0, i64 648
  %70 = load ptr, ptr %69, align 8
  tail call void %68(ptr noundef %70) #18
  store ptr null, ptr %69, align 8
  %71 = load ptr, ptr @Curl_cfree, align 8
  %72 = getelementptr inbounds nuw i8, ptr %0, i64 616
  %73 = load ptr, ptr %72, align 8
  tail call void %71(ptr noundef %73) #18
  store ptr null, ptr %72, align 8
  ret void
}